target datalayout = "e-m:e-p270:32:32-p271:32:32-p272:64:64-i64:64-i128:128-f80:128-n8:16:32:64-S128"
target triple = "x86_64-pc-linux-gnu"

%struct.DdManager = type { %struct.DdNode, ptr, ptr, ptr, ptr, ptr, ptr, ptr, i32, i32, double, double, double, i32, i32, i32, i32, i32, i32, ptr, ptr, %struct.DdSubtable, i32, i32, i32, i32, i32, i32, i32, double, i32, i32, i32, ptr, i64, double, i32, ptr, ptr, ptr, ptr, ptr, ptr, ptr, i32, ptr, ptr, ptr, ptr, ptr, ptr, i32, i32, i32, double, i32, i32, i32, i32, double, double, i32, i32, i32, i32, i32, i32, i32, i32, i32, ptr, ptr, i32, i32, i32, i32, i32, i32, ptr, ptr, ptr, ptr, ptr, ptr, ptr, ptr, i32, i64, i64, i64, i32, i64, i64, double, double, double, double, double, double, i32, ptr, ptr, i64 }
%struct.DdNode = type { i32, i32, ptr, %union.anon, i64 }
%union.anon = type { %struct.DdChildren }
%struct.DdChildren = type { ptr, ptr }
%struct.DdSubtable = type { ptr, i32, i32, i32, i32, i32, i32, i32, i32, i32, i32, i32 }

; Function Attrs: nounwind uwtable
define ptr @Cudd_BiasedOverApprox(ptr noundef %0, ptr noundef %1, ptr noundef %2, i32 noundef %3, i32 noundef %4, double noundef %5, double noundef %6) #0 {
  %8 = alloca ptr, align 8
  %9 = alloca ptr, align 8
  %10 = alloca ptr, align 8
  %11 = alloca i32, align 4
  %12 = alloca i32, align 4
  %13 = alloca double, align 8
  %14 = alloca double, align 8
  %15 = alloca ptr, align 8
  %16 = alloca ptr, align 8
  store ptr %0, ptr %8, align 8, !tbaa !3
  store ptr %1, ptr %9, align 8, !tbaa !8
  store ptr %2, ptr %10, align 8, !tbaa !8
  store i32 %3, ptr %11, align 4, !tbaa !10
  store i32 %4, ptr %12, align 4, !tbaa !10
  store double %5, ptr %13, align 8, !tbaa !12
  store double %6, ptr %14, align 8, !tbaa !12
  call void @llvm.lifetime.start.p0(i64 8, ptr %15) #7
  call void @llvm.lifetime.start.p0(i64 8, ptr %16) #7
  %17 = load ptr, ptr %9, align 8, !tbaa !8
  %18 = ptrtoint ptr %17 to i64
  %19 = xor i64 %18, 1
  %20 = inttoptr i64 %19 to ptr
  store ptr %20, ptr %16, align 8, !tbaa !8
  br label %21

21:                                               ; preds = %32, %7
  %22 = load ptr, ptr %8, align 8, !tbaa !3
  %23 = getelementptr inbounds nuw %struct.DdManager, ptr %22, i32 0, i32 55
  store i32 0, ptr %23, align 8, !tbaa !14
  %24 = load ptr, ptr %8, align 8, !tbaa !3
  %25 = load ptr, ptr %16, align 8, !tbaa !8
  %26 = load ptr, ptr %10, align 8, !tbaa !8
  %27 = load i32, ptr %11, align 4, !tbaa !10
  %28 = load i32, ptr %12, align 4, !tbaa !10
  %29 = load double, ptr %13, align 8, !tbaa !12
  %30 = load double, ptr %14, align 8, !tbaa !12
  %31 = call ptr @cuddBiasedUnderApprox(ptr noundef %24, ptr noundef %25, ptr noundef %26, i32 noundef %27, i32 noundef %28, double noundef %29, double noundef %30)
  store ptr %31, ptr %15, align 8, !tbaa !8
  br label %32

32:                                               ; preds = %21
  %33 = load ptr, ptr %8, align 8, !tbaa !3
  %34 = getelementptr inbounds nuw %struct.DdManager, ptr %33, i32 0, i32 55
  %35 = load i32, ptr %34, align 8, !tbaa !14
  %36 = icmp eq i32 %35, 1
  br i1 %36, label %21, label %37, !llvm.loop !48

37:                                               ; preds = %32
  %38 = load ptr, ptr %15, align 8, !tbaa !8
  %39 = ptrtoint ptr %38 to i64
  %40 = load ptr, ptr %15, align 8, !tbaa !8
  %41 = icmp ne ptr %40, null
  %42 = zext i1 %41 to i32
  %43 = sext i32 %42 to i64
  %44 = xor i64 %39, %43
  %45 = inttoptr i64 %44 to ptr
  call void @llvm.lifetime.end.p0(i64 8, ptr %16) #7
  call void @llvm.lifetime.end.p0(i64 8, ptr %15) #7
  ret ptr %45
}