; Function Attrs: nounwind uwtable
define ptr @Cudd_BiasedOverApprox(ptr noundef initializes((448, 452)) %0, ptr noundef %1, ptr noundef %2, i32 noundef %3, i32 noundef %4, double noundef %5, double noundef %6) local_unnamed_addr #0 {
  %8 = ptrtoint ptr %1 to i64
  %9 = xor i64 %8, 1
  %10 = inttoptr i64 %9 to ptr
  %11 = getelementptr inbounds nuw i8, ptr %0, i64 448
  br label %12

12:                                               ; preds = %12, %7
  store i32 0, ptr %11, align 8, !tbaa !3
  %13 = tail call ptr @cuddBiasedUnderApprox(ptr noundef %0, ptr noundef %10, ptr noundef %2, i32 noundef %3, i32 noundef %4, double noundef %5, double noundef %6)
  %14 = load i32, ptr %11, align 8, !tbaa !3
  %15 = icmp eq i32 %14, 1
  br i1 %15, label %12, label %16, !llvm.loop !67

16:                                               ; preds = %12
  %17 = ptrtoint ptr %13 to i64
  %18 = icmp ne ptr %13, null
  %19 = zext i1 %18 to i64
  %20 = xor i64 %19, %17
  %21 = inttoptr i64 %20 to ptr
  ret ptr %21
}